target datalayout = "e-m:e-p270:32:32-p271:32:32-p272:64:64-i64:64-i128:128-f80:128-n8:16:32:64-S128"
target triple = "x86_64-pc-linux-gnu"

%"class.bParse::bFile" = type <{ ptr, [7 x i8], i8, ptr, i32, i32, %class.b3HashMap, i32, [4 x i8], ptr, ptr, %class.b3AlignedObjectArray.4, %class.b3AlignedObjectArray.4, %class.b3AlignedObjectArray.6, %class.b3HashMap.8, %class.b3HashMap, i32, [4 x i8] }>
%class.b3AlignedObjectArray.4 = type <{ [4 x i8], i32, i32, [4 x i8], ptr, i8, [7 x i8] }>
%class.b3AlignedObjectArray.6 = type <{ [4 x i8], i32, i32, [4 x i8], ptr, i8, [7 x i8] }>
%class.b3HashMap.8 = type { %class.b3AlignedObjectArray, %class.b3AlignedObjectArray, %class.b3AlignedObjectArray.6, %class.b3AlignedObjectArray.2 }
%class.b3AlignedObjectArray = type <{ [4 x i8], i32, i32, [4 x i8], ptr, i8, [7 x i8] }>
%class.b3AlignedObjectArray.2 = type <{ [4 x i8], i32, i32, [4 x i8], ptr, i8, [7 x i8] }>
%class.b3HashMap = type { %class.b3AlignedObjectArray, %class.b3AlignedObjectArray, %class.b3AlignedObjectArray.0, %class.b3AlignedObjectArray.2 }
%class.b3AlignedObjectArray.0 = type <{ [4 x i8], i32, i32, [4 x i8], ptr, i8, [7 x i8] }>
%"class.bParse::bChunkInd" = type { i32, i32, ptr, i32, i32 }

@__const._ZN6bParse5bFile4swapEPcRNS_9bChunkIndEb.s = private unnamed_addr constant [21 x i8] c"SoftBodyMaterialData\00", align 16
@.str.5 = private unnamed_addr constant [5 x i8] c"ARAY\00", align 1

; Function Attrs: mustprogress uwtable
define dso_local void @_ZN6bParse5bFile4swapEPcRNS_9bChunkIndEb(ptr noundef nonnull align 8 dereferenceable(540) %0, ptr noundef %1, ptr noundef nonnull align 8 dereferenceable(24) %2, i1 noundef zeroext %3) #0 align 2 {
  %5 = alloca ptr, align 8
  %6 = alloca ptr, align 8
  %7 = alloca ptr, align 8
  %8 = alloca i8, align 1
  %9 = alloca ptr, align 8
  %10 = alloca ptr, align 8
  %11 = alloca [21 x i8], align 16
  %12 = alloca i32, align 4
  %13 = alloca ptr, align 8
  %14 = alloca ptr, align 8
  %15 = alloca i32, align 4
  %16 = alloca i32, align 4
  %17 = alloca i32, align 4
  store ptr %0, ptr %5, align 8, !tbaa !16
  store ptr %1, ptr %6, align 8, !tbaa !4
  store ptr %2, ptr %7, align 8, !tbaa !66
  %18 = zext i1 %3 to i8
  store i8 %18, ptr %8, align 1, !tbaa !67
  %19 = load ptr, ptr %5, align 8
  call void @llvm.lifetime.start.p0(i64 8, ptr %9) #16
  %20 = load ptr, ptr %6, align 8, !tbaa !4
  store ptr %20, ptr %9, align 8, !tbaa !4
  call void @llvm.lifetime.start.p0(i64 8, ptr %10) #16
  %21 = getelementptr inbounds nuw %"class.bParse::bFile", ptr %19, i32 0, i32 9
  %22 = load ptr, ptr %21, align 8, !tbaa !44
  %23 = load ptr, ptr %7, align 8, !tbaa !66
  %24 = getelementptr inbounds nuw %"class.bParse::bChunkInd", ptr %23, i32 0, i32 3
  %25 = load i32, ptr %24, align 8, !tbaa !79
  %26 = call noundef ptr @_ZN6bParse4bDNA9getStructEi(ptr noundef nonnull align 8 dereferenceable(420) %22, i32 noundef %25)
  store ptr %26, ptr %10, align 8, !tbaa !80
  call void @llvm.lifetime.start.p0(i64 21, ptr %11) #16
  call void @llvm.memcpy.p0.p0.i64(ptr align 16 %11, ptr align 16 @__const._ZN6bParse5bFile4swapEPcRNS_9bChunkIndEb.s, i64 21, i1 false)
  call void @llvm.lifetime.start.p0(i64 4, ptr %12) #16
  store i32 21, ptr %12, align 4, !tbaa !9
  %27 = load ptr, ptr %7, align 8, !tbaa !66
  %28 = getelementptr inbounds nuw %"class.bParse::bChunkInd", ptr %27, i32 0, i32 0
  %29 = call i32 @strncmp(ptr noundef %28, ptr noundef @.str.5, i64 noundef 4) #17
  %30 = icmp eq i32 %29, 0
  br i1 %30, label %31, label %56

31:                                               ; preds = %4
  call void @llvm.lifetime.start.p0(i64 8, ptr %13) #16
  %32 = getelementptr inbounds nuw %"class.bParse::bFile", ptr %19, i32 0, i32 9
  %33 = load ptr, ptr %32, align 8, !tbaa !44
  %34 = load ptr, ptr %7, align 8, !tbaa !66
  %35 = getelementptr inbounds nuw %"class.bParse::bChunkInd", ptr %34, i32 0, i32 3
  %36 = load i32, ptr %35, align 8, !tbaa !79
  %37 = call noundef ptr @_ZN6bParse4bDNA9getStructEi(ptr noundef nonnull align 8 dereferenceable(420) %33, i32 noundef %36)
  store ptr %37, ptr %13, align 8, !tbaa !80
  call void @llvm.lifetime.start.p0(i64 8, ptr %14) #16
  %38 = getelementptr inbounds nuw %"class.bParse::bFile", ptr %19, i32 0, i32 9
  %39 = load ptr, ptr %38, align 8, !tbaa !44
  %40 = load ptr, ptr %13, align 8, !tbaa !80
  %41 = getelementptr inbounds i16, ptr %40, i64 0
  %42 = load i16, ptr %41, align 2, !tbaa !82
  %43 = sext i16 %42 to i32
  %44 = call noundef ptr @_ZN6bParse4bDNA7getTypeEi(ptr noundef nonnull align 8 dereferenceable(420) %39, i32 noundef %43)
  store ptr %44, ptr %14, align 8, !tbaa !4
  %45 = load ptr, ptr %14, align 8, !tbaa !4
  %46 = getelementptr inbounds [21 x i8], ptr %11, i64 0, i64 0
  %47 = load i32, ptr %12, align 4, !tbaa !9
  %48 = sext i32 %47 to i64
  %49 = call i32 @strncmp(ptr noundef %45, ptr noundef %46, i64 noundef %48) #17
  %50 = icmp eq i32 %49, 0
  br i1 %50, label %51, label %52

51:                                               ; preds = %31
  store i32 1, ptr %15, align 4
  br label %53

52:                                               ; preds = %31
  store i32 0, ptr %15, align 4
  br label %53

53:                                               ; preds = %52, %51
  call void @llvm.lifetime.end.p0(i64 8, ptr %14) #16
  call void @llvm.lifetime.end.p0(i64 8, ptr %13) #16
  %54 = load i32, ptr %15, align 4
  switch i32 %54, label %87 [
    i32 0, label %55
  ]

55:                                               ; preds = %53
  br label %56

56:                                               ; preds = %55, %4
  call void @llvm.lifetime.start.p0(i64 4, ptr %16) #16
  %57 = getelementptr inbounds nuw %"class.bParse::bFile", ptr %19, i32 0, i32 9
  %58 = load ptr, ptr %57, align 8, !tbaa !44
  %59 = load ptr, ptr %10, align 8, !tbaa !80
  %60 = getelementptr inbounds i16, ptr %59, i64 0
  %61 = load i16, ptr %60, align 2, !tbaa !82
  %62 = sext i16 %61 to i32
  %63 = call noundef signext i16 @_ZN6bParse4bDNA9getLengthEi(ptr noundef nonnull align 8 dereferenceable(420) %58, i32 noundef %62)
  %64 = sext i16 %63 to i32
  store i32 %64, ptr %16, align 4, !tbaa !9
  call void @llvm.lifetime.start.p0(i64 4, ptr %17) #16
  store i32 0, ptr %17, align 4, !tbaa !9
  br label %65

65:                                               ; preds = %83, %56
  %66 = load i32, ptr %17, align 4, !tbaa !9
  %67 = load ptr, ptr %7, align 8, !tbaa !66
  %68 = getelementptr inbounds nuw %"class.bParse::bChunkInd", ptr %67, i32 0, i32 4
  %69 = load i32, ptr %68, align 4, !tbaa !86
  %70 = icmp slt i32 %66, %69
  br i1 %70, label %72, label %71

71:                                               ; preds = %65
  store i32 2, ptr %15, align 4
  call void @llvm.lifetime.end.p0(i64 4, ptr %17) #16
  br label %86

72:                                               ; preds = %65
  %73 = load ptr, ptr %7, align 8, !tbaa !66
  %74 = getelementptr inbounds nuw %"class.bParse::bChunkInd", ptr %73, i32 0, i32 3
  %75 = load i32, ptr %74, align 8, !tbaa !79
  %76 = load ptr, ptr %9, align 8, !tbaa !4
  %77 = load i8, ptr %8, align 1, !tbaa !67, !range !59, !noundef !60
  %78 = trunc i8 %77 to i1
  call void @_ZN6bParse5bFile10swapStructEiPcb(ptr noundef nonnull align 8 dereferenceable(540) %19, i32 noundef %75, ptr noundef %76, i1 noundef zeroext %78)
  %79 = load i32, ptr %16, align 4, !tbaa !9
  %80 = load ptr, ptr %9, align 8, !tbaa !4
  %81 = sext i32 %79 to i64
  %82 = getelementptr inbounds i8, ptr %80, i64 %81
  store ptr %82, ptr %9, align 8, !tbaa !4
  br label %83

83:                                               ; preds = %72
  %84 = load i32, ptr %17, align 4, !tbaa !9
  %85 = add nsw i32 %84, 1
  store i32 %85, ptr %17, align 4, !tbaa !9
  br label %65, !llvm.loop !87

86:                                               ; preds = %71
  call void @llvm.lifetime.end.p0(i64 4, ptr %16) #16
  store i32 0, ptr %15, align 4
  br label %87

87:                                               ; preds = %86, %53
  call void @llvm.lifetime.end.p0(i64 4, ptr %12) #16
  call void @llvm.lifetime.end.p0(i64 21, ptr %11) #16
  call void @llvm.lifetime.end.p0(i64 8, ptr %10) #16
  call void @llvm.lifetime.end.p0(i64 8, ptr %9) #16
  %88 = load i32, ptr %15, align 4
  switch i32 %88, label %90 [
    i32 0, label %89
    i32 1, label %89
  ]

89:                                               ; preds = %87, %87
  ret void

90:                                               ; preds = %87
  unreachable
}