; Function Attrs: mustprogress uwtable
define dso_local void @_ZN6bParse5bFile4swapEPcRNS_9bChunkIndEb(ptr noundef nonnull align 8 dereferenceable(540) %0, ptr noundef %1, ptr noundef nonnull readonly align 8 captures(none) dereferenceable(24) %2, i1 noundef zeroext %3) local_unnamed_addr #3 align 2 {
  %5 = getelementptr inbounds nuw i8, ptr %0, i64 168
  %6 = load ptr, ptr %5, align 8, !tbaa !65
  %7 = getelementptr inbounds nuw i8, ptr %2, i64 16
  %8 = load i32, ptr %7, align 8, !tbaa !80
  %9 = tail call noundef ptr @_ZN6bParse4bDNA9getStructEi(ptr noundef nonnull align 8 dereferenceable(420) %6, i32 noundef %8)
  %lhsv = load i32, ptr %2, align 8
  %.not = icmp eq i32 %lhsv, 1497453121
  br i1 %.not, label %10, label %19

10:                                               ; preds = %4
  %11 = load ptr, ptr %5, align 8, !tbaa !65
  %12 = load i32, ptr %7, align 8, !tbaa !80
  %13 = tail call noundef ptr @_ZN6bParse4bDNA9getStructEi(ptr noundef nonnull align 8 dereferenceable(420) %11, i32 noundef %12)
  %14 = load ptr, ptr %5, align 8, !tbaa !65
  %15 = load i16, ptr %13, align 2, !tbaa !81
  %16 = sext i16 %15 to i32
  %17 = tail call noundef ptr @_ZN6bParse4bDNA7getTypeEi(ptr noundef nonnull align 8 dereferenceable(420) %14, i32 noundef %16)
  %18 = tail call i32 @strncmp(ptr noundef nonnull dereferenceable(1) %17, ptr noundef nonnull dereferenceable(21) @__const._ZN6bParse5bFile4swapEPcRNS_9bChunkIndEb.s, i64 noundef 21) #29
  %.not20 = icmp eq i32 %18, 0
  br i1 %.not20, label %.loopexit, label %19

19:                                               ; preds = %10, %4
  %20 = load ptr, ptr %5, align 8, !tbaa !65
  %21 = load i16, ptr %9, align 2, !tbaa !81
  %22 = sext i16 %21 to i32
  %23 = tail call noundef signext i16 @_ZN6bParse4bDNA9getLengthEi(ptr noundef nonnull align 8 dereferenceable(420) %20, i32 noundef %22)
  %24 = getelementptr inbounds nuw i8, ptr %2, i64 20
  %25 = load i32, ptr %24, align 4, !tbaa !84
  %26 = icmp sgt i32 %25, 0
  br i1 %26, label %.lr.ph, label %.loopexit

.lr.ph:                                           ; preds = %19
  %27 = sext i16 %23 to i64
  br label %28

28:                                               ; preds = %.lr.ph, %28
  %.022 = phi i32 [ 0, %.lr.ph ], [ %31, %28 ]
  %.01721 = phi ptr [ %1, %.lr.ph ], [ %30, %28 ]
  %29 = load i32, ptr %7, align 8, !tbaa !80
  tail call void @_ZN6bParse5bFile10swapStructEiPcb(ptr noundef nonnull align 8 dereferenceable(540) %0, i32 noundef %29, ptr noundef %.01721, i1 noundef zeroext %3)
  %30 = getelementptr inbounds i8, ptr %.01721, i64 %27
  %31 = add nuw nsw i32 %.022, 1
  %32 = load i32, ptr %24, align 4, !tbaa !84
  %33 = icmp slt i32 %31, %32
  br i1 %33, label %28, label %.loopexit, !llvm.loop !85

.loopexit:                                        ; preds = %28, %19, %10
  ret void
}